target datalayout = "e-m:e-p270:32:32-p271:32:32-p272:64:64-i64:64-i128:128-f80:128-n8:16:32:64-S128"
target triple = "x86_64-pc-linux-gnu"

%struct.lstopo_color = type { i32, i32, i32, i32, %union.lstopo_color_private_u, ptr }
%union.lstopo_color_private_u = type { %struct.lstopo_color_private_ascii_s }
%struct.lstopo_color_private_ascii_s = type { i32 }

@initp = internal global ptr null, align 8
@ascii_color_index = internal global i32 16, align 4
@ascii_color_index_step = internal global i32 1, align 4
@initc = internal global ptr null, align 8
@default_color = internal global ptr null, align 8

; Function Attrs: nounwind uwtable
define internal i32 @ascii_declare_color(ptr noundef %0, ptr noundef %1) #0 {
  %3 = alloca ptr, align 8
  %4 = alloca ptr, align 8
  %5 = alloca i32, align 4
  %6 = alloca i32, align 4
  %7 = alloca i32, align 4
  %8 = alloca i32, align 4
  %9 = alloca i32, align 4
  %10 = alloca i32, align 4
  %11 = alloca ptr, align 8
  store ptr %0, ptr %3, align 8, !tbaa !4
  store ptr %1, ptr %4, align 8, !tbaa !11
  call void @llvm.lifetime.start.p0(i64 4, ptr %5) #8
  %12 = load ptr, ptr %4, align 8, !tbaa !11
  %13 = getelementptr inbounds nuw %struct.lstopo_color, ptr %12, i32 0, i32 0
  %14 = load i32, ptr %13, align 8, !tbaa !65
  store i32 %14, ptr %5, align 4, !tbaa !13
  call void @llvm.lifetime.start.p0(i64 4, ptr %6) #8
  %15 = load ptr, ptr %4, align 8, !tbaa !11
  %16 = getelementptr inbounds nuw %struct.lstopo_color, ptr %15, i32 0, i32 1
  %17 = load i32, ptr %16, align 4, !tbaa !67
  store i32 %17, ptr %6, align 4, !tbaa !13
  call void @llvm.lifetime.start.p0(i64 4, ptr %7) #8
  %18 = load ptr, ptr %4, align 8, !tbaa !11
  %19 = getelementptr inbounds nuw %struct.lstopo_color, ptr %18, i32 0, i32 2
  %20 = load i32, ptr %19, align 8, !tbaa !68
  store i32 %20, ptr %7, align 4, !tbaa !13
  call void @llvm.lifetime.start.p0(i64 4, ptr %8) #8
  call void @llvm.lifetime.start.p0(i64 4, ptr %9) #8
  call void @llvm.lifetime.start.p0(i64 4, ptr %10) #8
  call void @llvm.lifetime.start.p0(i64 8, ptr %11) #8
  %21 = load i32, ptr @ascii_color_index, align 4, !tbaa !13
  %22 = load ptr, ptr %4, align 8, !tbaa !11
  %23 = getelementptr inbounds nuw %struct.lstopo_color, ptr %22, i32 0, i32 4
  %24 = getelementptr inbounds nuw %struct.lstopo_color_private_ascii_s, ptr %23, i32 0, i32 0
  store i32 %21, ptr %24, align 8, !tbaa !40
  %25 = load i32, ptr @ascii_color_index_step, align 4, !tbaa !13
  %26 = load i32, ptr @ascii_color_index, align 4, !tbaa !13
  %27 = add nsw i32 %26, %25
  store i32 %27, ptr @ascii_color_index, align 4, !tbaa !13
  %28 = load i32, ptr %5, align 4, !tbaa !13
  %29 = mul nsw i32 %28, 1001
  %30 = sdiv i32 %29, 256
  store i32 %30, ptr %8, align 4, !tbaa !13
  %31 = load i32, ptr %6, align 4, !tbaa !13
  %32 = mul nsw i32 %31, 1001
  %33 = sdiv i32 %32, 256
  store i32 %33, ptr %9, align 4, !tbaa !13
  %34 = load i32, ptr %7, align 4, !tbaa !13
  %35 = mul nsw i32 %34, 1001
  %36 = sdiv i32 %35, 256
  store i32 %36, ptr %10, align 4, !tbaa !13
  %37 = load ptr, ptr @initc, align 8, !tbaa !9
  %38 = icmp ne ptr %37, null
  br i1 %38, label %39, label %54

39:                                               ; preds = %2
  %40 = load ptr, ptr @initc, align 8, !tbaa !9
  %41 = load ptr, ptr %4, align 8, !tbaa !11
  %42 = getelementptr inbounds nuw %struct.lstopo_color, ptr %41, i32 0, i32 4
  %43 = getelementptr inbounds nuw %struct.lstopo_color_private_ascii_s, ptr %42, i32 0, i32 0
  %44 = load i32, ptr %43, align 8, !tbaa !40
  %45 = load i32, ptr %8, align 4, !tbaa !13
  %46 = load i32, ptr %9, align 4, !tbaa !13
  %47 = load i32, ptr %10, align 4, !tbaa !13
  %48 = call ptr (ptr, ...) @tparm(ptr noundef %40, i32 noundef %44, i32 noundef %45, i32 noundef %46, i32 noundef %47, i32 noundef 0, i32 noundef 0, i32 noundef 0, i32 noundef 0, i32 noundef 0)
  store ptr %48, ptr %11, align 8, !tbaa !9
  %49 = icmp ne ptr %48, null
  br i1 %49, label %50, label %53

50:                                               ; preds = %39
  %51 = load ptr, ptr %11, align 8, !tbaa !9
  %52 = call i32 @tputs(ptr noundef %51, i32 noundef 1, ptr noundef @myputchar)
  br label %53

53:                                               ; preds = %50, %39
  br label %73

54:                                               ; preds = %2
  %55 = load ptr, ptr @initp, align 8, !tbaa !9
  %56 = icmp ne ptr %55, null
  br i1 %56, label %57, label %72

57:                                               ; preds = %54
  %58 = load ptr, ptr @initp, align 8, !tbaa !9
  %59 = load ptr, ptr %4, align 8, !tbaa !11
  %60 = getelementptr inbounds nuw %struct.lstopo_color, ptr %59, i32 0, i32 4
  %61 = getelementptr inbounds nuw %struct.lstopo_color_private_ascii_s, ptr %60, i32 0, i32 0
  %62 = load i32, ptr %61, align 8, !tbaa !40
  %63 = load i32, ptr %8, align 4, !tbaa !13
  %64 = load i32, ptr %9, align 4, !tbaa !13
  %65 = load i32, ptr %10, align 4, !tbaa !13
  %66 = call ptr (ptr, ...) @tparm(ptr noundef %58, i32 noundef %62, i32 noundef 0, i32 noundef 0, i32 noundef 0, i32 noundef %63, i32 noundef %64, i32 noundef %65, i32 noundef 0, i32 noundef 0)
  store ptr %66, ptr %11, align 8, !tbaa !9
  %67 = icmp ne ptr %66, null
  br i1 %67, label %68, label %71

68:                                               ; preds = %57
  %69 = load ptr, ptr %11, align 8, !tbaa !9
  %70 = call i32 @tputs(ptr noundef %69, i32 noundef 1, ptr noundef @myputchar)
  br label %71

71:                                               ; preds = %68, %57
  br label %72

72:                                               ; preds = %71, %54
  br label %73

73:                                               ; preds = %72, %53
  %74 = load ptr, ptr @default_color, align 8, !tbaa !11
  %75 = icmp ne ptr %74, null
  br i1 %75, label %87, label %76

76:                                               ; preds = %73
  %77 = load i32, ptr %5, align 4, !tbaa !13
  %78 = icmp ne i32 %77, 0
  br i1 %78, label %87, label %79

79:                                               ; preds = %76
  %80 = load i32, ptr %6, align 4, !tbaa !13
  %81 = icmp ne i32 %80, 0
  br i1 %81, label %87, label %82

82:                                               ; preds = %79
  %83 = load i32, ptr %7, align 4, !tbaa !13
  %84 = icmp ne i32 %83, 0
  br i1 %84, label %87, label %85

85:                                               ; preds = %82
  %86 = load ptr, ptr %4, align 8, !tbaa !11
  store ptr %86, ptr @default_color, align 8, !tbaa !11
  br label %87

87:                                               ; preds = %85, %82, %79, %76, %73
  call void @llvm.lifetime.end.p0(i64 8, ptr %11) #8
  call void @llvm.lifetime.end.p0(i64 4, ptr %10) #8
  call void @llvm.lifetime.end.p0(i64 4, ptr %9) #8
  call void @llvm.lifetime.end.p0(i64 4, ptr %8) #8
  call void @llvm.lifetime.end.p0(i64 4, ptr %7) #8
  call void @llvm.lifetime.end.p0(i64 4, ptr %6) #8
  call void @llvm.lifetime.end.p0(i64 4, ptr %5) #8
  ret i32 0
}