; Function Attrs: nounwind uwtable
define internal noundef i32 @ascii_declare_color(ptr readnone captures(none) %0, ptr noundef initializes((16, 20)) %1) #0 {
  %3 = load i32, ptr %1, align 8, !tbaa !61
  %4 = getelementptr inbounds nuw i8, ptr %1, i64 4
  %5 = load i32, ptr %4, align 4, !tbaa !63
  %6 = getelementptr inbounds nuw i8, ptr %1, i64 8
  %7 = load i32, ptr %6, align 8, !tbaa !64
  %8 = load i32, ptr @ascii_color_index, align 4, !tbaa !21
  %9 = getelementptr inbounds nuw i8, ptr %1, i64 16
  store i32 %8, ptr %9, align 8, !tbaa !36
  %.b = load i1, ptr @ascii_color_index_step, align 4
  %10 = select i1 %.b, i32 -1, i32 1
  %11 = add nsw i32 %10, %8
  store i32 %11, ptr @ascii_color_index, align 4, !tbaa !21
  %12 = mul nsw i32 %3, 1001
  %13 = sdiv i32 %12, 256
  %14 = mul nsw i32 %5, 1001
  %15 = sdiv i32 %14, 256
  %16 = mul nsw i32 %7, 1001
  %17 = sdiv i32 %16, 256
  %18 = load ptr, ptr @initc, align 8, !tbaa !32
  %.not = icmp eq ptr %18, null
  br i1 %.not, label %21, label %19

19:                                               ; preds = %2
  %20 = tail call ptr (ptr, ...) @tparm(ptr noundef nonnull %18, i32 noundef %8, i32 noundef %13, i32 noundef %15, i32 noundef %17, i32 noundef 0, i32 noundef 0, i32 noundef 0, i32 noundef 0, i32 noundef 0) #15
  %.not30 = icmp eq ptr %20, null
  br i1 %.not30, label %26, label %.sink.split

21:                                               ; preds = %2
  %22 = load ptr, ptr @initp, align 8, !tbaa !32
  %.not28 = icmp eq ptr %22, null
  br i1 %.not28, label %26, label %23

23:                                               ; preds = %21
  %24 = tail call ptr (ptr, ...) @tparm(ptr noundef nonnull %22, i32 noundef %8, i32 noundef 0, i32 noundef 0, i32 noundef 0, i32 noundef %13, i32 noundef %15, i32 noundef %17, i32 noundef 0, i32 noundef 0) #15
  %.not29 = icmp eq ptr %24, null
  br i1 %.not29, label %26, label %.sink.split

.sink.split:                                      ; preds = %23, %19
  %.sink = phi ptr [ %20, %19 ], [ %24, %23 ]
  %25 = tail call i32 @tputs(ptr noundef nonnull %.sink, i32 noundef 1, ptr noundef nonnull @myputchar) #15
  br label %26

26:                                               ; preds = %.sink.split, %21, %23, %19
  %27 = load ptr, ptr @default_color, align 8, !tbaa !67
  %28 = icmp ne ptr %27, null
  %29 = icmp ne i32 %3, 0
  %or.cond = select i1 %28, i1 true, i1 %29
  %30 = icmp ne i32 %5, 0
  %or.cond3 = select i1 %or.cond, i1 true, i1 %30
  %31 = icmp ne i32 %7, 0
  %or.cond5 = select i1 %or.cond3, i1 true, i1 %31
  br i1 %or.cond5, label %33, label %32

32:                                               ; preds = %26
  store ptr %1, ptr @default_color, align 8, !tbaa !67
  br label %33

33:                                               ; preds = %32, %26
  ret i32 0
}